target datalayout = "e-m:e-p270:32:32-p271:32:32-p272:64:64-i64:64-i128:128-f80:128-n8:16:32:64-S128"
target triple = "x86_64-unknown-linux-gnu"

%"class.folly::SemiFuture" = type { %"class.folly::futures::detail::FutureBase" }
%"class.folly::futures::detail::FutureBase" = type { ptr }

; Function Attrs: mustprogress uwtable
define void @_ZN5folly6fibers14BatchSemaphore6signalEl(ptr noundef nonnull align 8 dereferenceable(40) %this, i64 noundef %tokens) local_unnamed_addr #0 align 2 {
entry:
  %call = tail call noundef zeroext i1 @_ZN5folly6fibers13SemaphoreBase10signalSlowEl(ptr noundef nonnull align 8 dereferenceable(40) %this, i64 noundef %tokens)
  ret void
}

declare noundef zeroext i1 @_ZN5folly6fibers13SemaphoreBase10signalSlowEl(ptr noundef nonnull align 8 dereferenceable(40), i64 noundef) local_unnamed_addr #1

; Function Attrs: mustprogress uwtable
define void @_ZN5folly6fibers14BatchSemaphore4waitEl(ptr noundef nonnull align 8 dereferenceable(40) %this, i64 noundef %tokens) local_unnamed_addr #0 align 2 {
entry:
  tail call void @_ZN5folly6fibers13SemaphoreBase11wait_commonEl(ptr noundef nonnull align 8 dereferenceable(40) %this, i64 noundef %tokens)
  ret void
}

declare void @_ZN5folly6fibers13SemaphoreBase11wait_commonEl(ptr noundef nonnull align 8 dereferenceable(40), i64 noundef) local_unnamed_addr #1

; Function Attrs: mustprogress uwtable
define noundef zeroext i1 @_ZN5folly6fibers14BatchSemaphore8try_waitERNS0_13SemaphoreBase6WaiterEl(ptr noundef nonnull align 8 dereferenceable(40) %this, ptr noundef nonnull align 8 dereferenceable(32) %waiter, i64 noundef %tokens) local_unnamed_addr #0 align 2 {
entry:
  %call = tail call noundef zeroext i1 @_ZN5folly6fibers13SemaphoreBase15try_wait_commonERNS1_6WaiterEl(ptr noundef nonnull align 8 dereferenceable(40) %this, ptr noundef nonnull align 8 dereferenceable(32) %waiter, i64 noundef %tokens)
  ret i1 %call
}

declare noundef zeroext i1 @_ZN5folly6fibers13SemaphoreBase15try_wait_commonERNS1_6WaiterEl(ptr noundef nonnull align 8 dereferenceable(40), ptr noundef nonnull align 8 dereferenceable(32), i64 noundef) local_unnamed_addr #1

; Function Attrs: mustprogress uwtable
define noundef zeroext i1 @_ZN5folly6fibers14BatchSemaphore8try_waitEl(ptr noundef nonnull align 8 dereferenceable(40) %this, i64 noundef %tokens) local_unnamed_addr #0 align 2 {
entry:
  %call = tail call noundef zeroext i1 @_ZN5folly6fibers13SemaphoreBase15try_wait_commonEl(ptr noundef nonnull align 8 dereferenceable(40) %this, i64 noundef %tokens)
  ret i1 %call
}

declare noundef zeroext i1 @_ZN5folly6fibers13SemaphoreBase15try_wait_commonEl(ptr noundef nonnull align 8 dereferenceable(40), i64 noundef) local_unnamed_addr #1

; Function Attrs: mustprogress uwtable
define void @_ZN5folly6fibers14BatchSemaphore11future_waitEl(ptr dead_on_unwind noalias writable sret(%"class.folly::SemiFuture") align 8 %agg.result, ptr noundef nonnull align 8 dereferenceable(40) %this, i64 noundef %tokens) local_unnamed_addr #0 align 2 {
entry:
  tail call void @_ZN5folly6fibers13SemaphoreBase18future_wait_commonEl(ptr dead_on_unwind writable sret(%"class.folly::SemiFuture") align 8 %agg.result, ptr noundef nonnull align 8 dereferenceable(40) %this, i64 noundef %tokens)
  ret void
}

declare void @_ZN5folly6fibers13SemaphoreBase18future_wait_commonEl(ptr dead_on_unwind writable sret(%"class.folly::SemiFuture") align 8, ptr noundef nonnull align 8 dereferenceable(40), i64 noundef) local_unnamed_addr #1


!llvm.module.flags = !{!0, !1, !2, !3, !4, !5, !6}

!0 = !{i32 7, !"Dwarf Version", i32 5}
!1 = !{i32 2, !"Debug Info Version", i32 3}
!2 = !{i32 1, !"wchar_size", i32 4}
!3 = !{i32 7, !"openmp", i32 51}
!4 = !{i32 8, !"PIC Level", i32 2}
!5 = !{i32 7, !"uwtable", i32 2}
!6 = !{i32 7, !"debug-info-assignment-tracking", i1 true}
